; ModuleID = 'source-C-CXX/44/958.c'
source_filename = "source-C-CXX/44/958.c"
target datalayout = "e-m:e-p270:32:32-p271:32:32-p272:64:64-i64:64-f80:128-n8:16:32:64-S128"
target triple = "x86_64-pc-linux-gnu"

@.str = private unnamed_addr constant [5 x i8] c"%s%s\00", align 1
@.str.1 = private unnamed_addr constant [3 x i8] c"No\00", align 1
@.str.2 = private unnamed_addr constant [3 x i8] c"%d\00", align 1

; Function Attrs: nofree nounwind sspstrong uwtable
define dso_local i32 @main() local_unnamed_addr #0 {
  %1 = alloca [100 x i8], align 16
  %2 = alloca [100 x i8], align 16
  %3 = getelementptr inbounds [100 x i8], [100 x i8]* %1, i64 0, i64 0
  call void @llvm.lifetime.start.p0i8(i64 100, i8* nonnull %3) #3
  %4 = getelementptr inbounds [100 x i8], [100 x i8]* %2, i64 0, i64 0
  call void @llvm.lifetime.start.p0i8(i64 100, i8* nonnull %4) #3
  %5 = call i32 (i8*, ...) @__isoc99_scanf(i8* getelementptr inbounds ([5 x i8], [5 x i8]* @.str, i64 0, i64 0), i8* nonnull %3, i8* nonnull %4)
  %6 = load i8, i8* %3, align 16
  %7 = getelementptr inbounds [100 x i8], [100 x i8]* %1, i64 0, i64 1
  %8 = load i8, i8* %7, align 1
  %9 = icmp eq i8 %8, 0
  br label %10

10:                                               ; preds = %46, %0
  %11 = phi i64 [ 0, %0 ], [ %16, %46 ]
  %12 = shl i64 %11, 32
  %13 = ashr exact i64 %12, 32
  br label %14

14:                                               ; preds = %22, %10
  %15 = phi i64 [ %16, %22 ], [ %13, %10 ]
  %16 = add nsw i64 %15, 1
  %17 = getelementptr inbounds [100 x i8], [100 x i8]* %2, i64 0, i64 %16
  %18 = load i8, i8* %17, align 1, !tbaa !5
  %19 = icmp eq i8 %18, 0
  br i1 %19, label %20, label %22

20:                                               ; preds = %14
  %21 = call i32 (i8*, ...) @printf(i8* nonnull dereferenceable(1) getelementptr inbounds ([3 x i8], [3 x i8]* @.str.1, i64 0, i64 0))
  br label %50

22:                                               ; preds = %14
  %23 = icmp eq i8 %6, %18
  br i1 %23, label %24, label %14

24:                                               ; preds = %22
  br i1 %9, label %43, label %25

25:                                               ; preds = %24
  %26 = shl i64 %15, 32
  %27 = add i64 %26, 8589934592
  %28 = ashr exact i64 %27, 32
  %29 = shl i64 %16, 32
  %30 = ashr exact i64 %29, 32
  br label %36

31:                                               ; preds = %36
  %32 = sub nsw i64 %42, %30
  %33 = getelementptr inbounds [100 x i8], [100 x i8]* %1, i64 0, i64 %32
  %34 = load i8, i8* %33, align 1, !tbaa !5
  %35 = icmp eq i8 %34, 0
  br i1 %35, label %43, label %36

36:                                               ; preds = %25, %31
  %37 = phi i64 [ %28, %25 ], [ %42, %31 ]
  %38 = phi i8 [ %8, %25 ], [ %34, %31 ]
  %39 = getelementptr inbounds [100 x i8], [100 x i8]* %2, i64 0, i64 %37
  %40 = load i8, i8* %39, align 1, !tbaa !5
  %41 = icmp eq i8 %38, %40
  %42 = add i64 %37, 1
  br i1 %41, label %31, label %46

43:                                               ; preds = %24, %31
  %44 = trunc i64 %16 to i32
  %45 = call i32 (i8*, ...) @printf(i8* nonnull dereferenceable(1) getelementptr inbounds ([3 x i8], [3 x i8]* @.str.2, i64 0, i64 0), i32 %44)
  br label %50

46:                                               ; preds = %36
  %47 = icmp eq i8 %40, 0
  br i1 %47, label %48, label %10

48:                                               ; preds = %46
  %49 = call i32 (i8*, ...) @printf(i8* nonnull dereferenceable(1) getelementptr inbounds ([3 x i8], [3 x i8]* @.str.1, i64 0, i64 0))
  br label %50

50:                                               ; preds = %43, %48, %20
  call void @llvm.lifetime.end.p0i8(i64 100, i8* nonnull %4) #3
  call void @llvm.lifetime.end.p0i8(i64 100, i8* nonnull %3) #3
  ret i32 0
}

; Function Attrs: argmemonly mustprogress nofree nosync nounwind willreturn
declare void @llvm.lifetime.start.p0i8(i64 immarg, i8* nocapture) #1

; Function Attrs: nofree nounwind
declare noundef i32 @__isoc99_scanf(i8* nocapture noundef readonly, ...) local_unnamed_addr #2

; Function Attrs: nofree nounwind
declare noundef i32 @printf(i8* nocapture noundef readonly, ...) local_unnamed_addr #2

; Function Attrs: argmemonly mustprogress nofree nosync nounwind willreturn
declare void @llvm.lifetime.end.p0i8(i64 immarg, i8* nocapture) #1


!llvm.module.flags = !{!0, !1, !2, !3}
!llvm.ident = !{!4}

!0 = !{i32 1, !"wchar_size", i32 4}
!1 = !{i32 7, !"PIC Level", i32 2}
!2 = !{i32 7, !"PIE Level", i32 2}
!3 = !{i32 7, !"uwtable", i32 1}
!4 = !{!"clang version 13.0.0"}
!5 = !{!6, !6, i64 0}
!6 = !{!"omnipotent char", !7, i64 0}
!7 = !{!"Simple C/C++ TBAA"}
